; Function Attrs: mustprogress nofree nounwind willreturn memory(write, inaccessiblemem: readwrite) uwtable
define internal range(i32 0, 2) i32 @bio_new(ptr noundef writeonly captures(none) %0) #3 {
  %calloc = tail call dereferenceable_or_null(64) ptr @calloc(i64 1, i64 64)
  %2 = icmp eq ptr %calloc, null
  br i1 %2, label %6, label %3

3:                                                ; preds = %1
  %4 = getelementptr inbounds nuw i8, ptr %calloc, i64 32
  store i64 17408, ptr %4, align 8, !tbaa !23
  %5 = getelementptr inbounds nuw i8, ptr %0, i64 48
  store ptr %calloc, ptr %5, align 8, !tbaa !17
  br label %6

6:                                                ; preds = %1, %3
  %.0 = phi i32 [ 1, %3 ], [ 0, %1 ]
  ret i32 %.0
}